; Function Attrs: nounwind uwtable
define dso_local zeroext i1 @cred_jobid_cached(i32 noundef %0) local_unnamed_addr #0 {
  %2 = alloca i32, align 4
  %3 = alloca i64, align 8
  %4 = tail call i32 @pthread_mutex_lock(ptr noundef nonnull @cred_cache_mutex) #10
  %.not = icmp eq i32 %4, 0
  br i1 %.not, label %7, label %5

5:                                                ; preds = %1
  %6 = tail call ptr @__errno_location() #11
  store i32 %4, ptr %6, align 4
  tail call void (ptr, ...) @fatal_abort(ptr noundef nonnull @.str.2, ptr noundef nonnull @__func__.cred_jobid_cached) #12
  unreachable

7:                                                ; preds = %1
  call void @llvm.lifetime.start.p0(i64 8, ptr nonnull %3) #10
  %8 = load ptr, ptr @cred_job_list, align 8
  %.not.i = icmp eq ptr %8, null
  br i1 %.not.i, label %9, label %10

9:                                                ; preds = %7
  tail call void (ptr, ...) @warning(ptr noundef nonnull @.str.16) #10
  br label %_clear_expired_job_states.exit

10:                                               ; preds = %7
  %11 = tail call i64 @time(ptr noundef null) #10
  store i64 %11, ptr %3, align 8
  %12 = load ptr, ptr @cred_job_list, align 8
  %13 = call i32 @list_delete_all(ptr noundef %12, ptr noundef nonnull @_list_find_expired_job_state, ptr noundef nonnull %3) #10
  br label %_clear_expired_job_states.exit

_clear_expired_job_states.exit:                   ; preds = %9, %10
  call void @llvm.lifetime.end.p0(i64 8, ptr nonnull %3) #10
  call void @llvm.lifetime.start.p0(i64 4, ptr nonnull %2)
  store i32 %0, ptr %2, align 4
  %14 = load ptr, ptr @cred_job_list, align 8
  %15 = call ptr @list_find_first(ptr noundef %14, ptr noundef nonnull @_list_find_job_state, ptr noundef nonnull %2) #10
  call void @llvm.lifetime.end.p0(i64 4, ptr nonnull %2)
  %16 = call i32 @pthread_mutex_unlock(ptr noundef nonnull @cred_cache_mutex) #10
  %.not7 = icmp eq i32 %16, 0
  br i1 %.not7, label %19, label %17

17:                                               ; preds = %_clear_expired_job_states.exit
  %18 = tail call ptr @__errno_location() #11
  store i32 %16, ptr %18, align 4
  call void (ptr, ...) @fatal_abort(ptr noundef nonnull @.str.7, ptr noundef nonnull @__func__.cred_jobid_cached) #12
  unreachable

19:                                               ; preds = %_clear_expired_job_states.exit
  %20 = icmp ne ptr %15, null
  ret i1 %20
}